; ModuleID = '56/2624.c'
source_filename = "56/2624.c"
target datalayout = "e-m:e-p270:32:32-p271:32:32-p272:64:64-i64:64-f80:128-n8:16:32:64-S128"
target triple = "x86_64-pc-linux-gnu"

@.str = private unnamed_addr constant [3 x i8] c"%s\00", align 1
@.str.1 = private unnamed_addr constant [3 x i8] c"%c\00", align 1

; Function Attrs: noinline nounwind uwtable
define dso_local void @main() #0 {
  %1 = alloca i32, align 4
  %2 = alloca [6 x i8], align 1
  %3 = bitcast [6 x i8]* %2 to i8*
  call void @llvm.memset.p0i8.i64(i8* align 1 %3, i8 0, i64 6, i1 false)
  %4 = getelementptr inbounds [6 x i8], [6 x i8]* %2, i64 0, i64 0
  %5 = call i32 (i8*, ...) @__isoc99_scanf(i8* getelementptr inbounds ([3 x i8], [3 x i8]* @.str, i64 0, i64 0), i8* %4)
  store i32 0, i32* %1, align 4
  br label %6

6:                                                ; preds = %25, %0
  %7 = load i32, i32* %1, align 4
  %8 = icmp slt i32 %7, 6
  br i1 %8, label %9, label %28

9:                                                ; preds = %6
  %10 = load i32, i32* %1, align 4
  %11 = sub nsw i32 5, %10
  %12 = sext i32 %11 to i64
  %13 = getelementptr inbounds [6 x i8], [6 x i8]* %2, i64 0, i64 %12
  %14 = load i8, i8* %13, align 1
  %15 = icmp ne i8 %14, 0
  br i1 %15, label %16, label %24

16:                                               ; preds = %9
  %17 = load i32, i32* %1, align 4
  %18 = sub nsw i32 5, %17
  %19 = sext i32 %18 to i64
  %20 = getelementptr inbounds [6 x i8], [6 x i8]* %2, i64 0, i64 %19
  %21 = load i8, i8* %20, align 1
  %22 = sext i8 %21 to i32
  %23 = call i32 (i8*, ...) @printf(i8* getelementptr inbounds ([3 x i8], [3 x i8]* @.str.1, i64 0, i64 0), i32 %22)
  br label %24

24:                                               ; preds = %16, %9
  br label %25

25:                                               ; preds = %24
  %26 = load i32, i32* %1, align 4
  %27 = add nsw i32 %26, 1
  store i32 %27, i32* %1, align 4
  br label %6

28:                                               ; preds = %6
  ret void
}

; Function Attrs: argmemonly nounwind willreturn
declare void @llvm.memset.p0i8.i64(i8* nocapture writeonly, i8, i64, i1 immarg) #1

declare dso_local i32 @__isoc99_scanf(i8*, ...) #2

declare dso_local i32 @printf(i8*, ...) #2


!llvm.module.flags = !{!0}
!llvm.ident = !{!1}

!0 = !{i32 1, !"wchar_size", i32 4}
!1 = !{!"clang version 10.0.0-4ubuntu1 "}
