; ModuleID = 'source-C-CXX/55/2624.c'
source_filename = "source-C-CXX/55/2624.c"
target datalayout = "e-m:e-p270:32:32-p271:32:32-p272:64:64-i64:64-f80:128-n8:16:32:64-S128"
target triple = "x86_64-pc-linux-gnu"

@.str = private unnamed_addr constant [3 x i8] c"%s\00", align 1

; Function Attrs: nofree nounwind sspstrong uwtable
define dso_local void @main() local_unnamed_addr #0 {
  %1 = alloca [6 x i8], align 1
  %2 = getelementptr inbounds [6 x i8], [6 x i8]* %1, i64 0, i64 0
  call void @llvm.lifetime.start.p0i8(i64 6, i8* nonnull %2) #5
  call void @llvm.memset.p0i8.i64(i8* noundef nonnull align 1 dereferenceable(6) %2, i8 0, i64 6, i1 false)
  %3 = call i32 (i8*, ...) @__isoc99_scanf(i8* getelementptr inbounds ([3 x i8], [3 x i8]* @.str, i64 0, i64 0), i8* nonnull %2)
  %4 = getelementptr inbounds [6 x i8], [6 x i8]* %1, i64 0, i64 5
  %5 = load i8, i8* %4, align 1, !tbaa !5
  %6 = icmp eq i8 %5, 0
  br i1 %6, label %10, label %7

7:                                                ; preds = %0
  %8 = sext i8 %5 to i32
  %9 = call i32 @putchar(i32 %8)
  br label %10

10:                                               ; preds = %0, %7
  %11 = getelementptr inbounds [6 x i8], [6 x i8]* %1, i64 0, i64 4
  %12 = load i8, i8* %11, align 1, !tbaa !5
  %13 = icmp eq i8 %12, 0
  br i1 %13, label %17, label %14

14:                                               ; preds = %10
  %15 = sext i8 %12 to i32
  %16 = call i32 @putchar(i32 %15)
  br label %17

17:                                               ; preds = %14, %10
  %18 = getelementptr inbounds [6 x i8], [6 x i8]* %1, i64 0, i64 3
  %19 = load i8, i8* %18, align 1, !tbaa !5
  %20 = icmp eq i8 %19, 0
  br i1 %20, label %24, label %21

21:                                               ; preds = %17
  %22 = sext i8 %19 to i32
  %23 = call i32 @putchar(i32 %22)
  br label %24

24:                                               ; preds = %21, %17
  %25 = getelementptr inbounds [6 x i8], [6 x i8]* %1, i64 0, i64 2
  %26 = load i8, i8* %25, align 1, !tbaa !5
  %27 = icmp eq i8 %26, 0
  br i1 %27, label %31, label %28

28:                                               ; preds = %24
  %29 = sext i8 %26 to i32
  %30 = call i32 @putchar(i32 %29)
  br label %31

31:                                               ; preds = %28, %24
  %32 = getelementptr inbounds [6 x i8], [6 x i8]* %1, i64 0, i64 1
  %33 = load i8, i8* %32, align 1, !tbaa !5
  %34 = icmp eq i8 %33, 0
  br i1 %34, label %38, label %35

35:                                               ; preds = %31
  %36 = sext i8 %33 to i32
  %37 = call i32 @putchar(i32 %36)
  br label %38

38:                                               ; preds = %35, %31
  %39 = load i8, i8* %2, align 1, !tbaa !5
  %40 = icmp eq i8 %39, 0
  br i1 %40, label %44, label %41

41:                                               ; preds = %38
  %42 = sext i8 %39 to i32
  %43 = call i32 @putchar(i32 %42)
  br label %44

44:                                               ; preds = %41, %38
  call void @llvm.lifetime.end.p0i8(i64 6, i8* nonnull %2) #5
  ret void
}

; Function Attrs: argmemonly mustprogress nofree nosync nounwind willreturn
declare void @llvm.lifetime.start.p0i8(i64 immarg, i8* nocapture) #1

; Function Attrs: argmemonly mustprogress nofree nounwind willreturn writeonly
declare void @llvm.memset.p0i8.i64(i8* nocapture writeonly, i8, i64, i1 immarg) #2

; Function Attrs: nofree nounwind
declare noundef i32 @__isoc99_scanf(i8* nocapture noundef readonly, ...) local_unnamed_addr #3

; Function Attrs: argmemonly mustprogress nofree nosync nounwind willreturn
declare void @llvm.lifetime.end.p0i8(i64 immarg, i8* nocapture) #1

; Function Attrs: nofree nounwind
declare noundef i32 @putchar(i32 noundef) local_unnamed_addr #4


!llvm.module.flags = !{!0, !1, !2, !3}
!llvm.ident = !{!4}

!0 = !{i32 1, !"wchar_size", i32 4}
!1 = !{i32 7, !"PIC Level", i32 2}
!2 = !{i32 7, !"PIE Level", i32 2}
!3 = !{i32 7, !"uwtable", i32 1}
!4 = !{!"clang version 13.0.0"}
!5 = !{!6, !6, i64 0}
!6 = !{!"omnipotent char", !7, i64 0}
!7 = !{!"Simple C/C++ TBAA"}
